target datalayout = "e-m:e-p270:32:32-p271:32:32-p272:64:64-i64:64-i128:128-f80:128-n8:16:32:64-S128"
target triple = "x86_64-unknown-linux-gnu"

%struct.timeval = type { i64, i64 }

; Function Attrs: mustprogress nounwind uwtable
define dso_local noundef i32 @_ZN2EA4StdC17TimevalDifferenceEPK7timevalS3_PS1_(ptr noundef %pTVA, ptr noundef %pTVB, ptr noundef %pTVResult) #3 {
entry:
  %retval = alloca i32, align 4
  %pTVA.addr = alloca ptr, align 8
  %pTVB.addr = alloca ptr, align 8
  %pTVResult.addr = alloca ptr, align 8
  %tva = alloca %struct.timeval, align 8
  %tvb = alloca %struct.timeval, align 8
  %nsec = alloca i32, align 4
  %nsec14 = alloca i32, align 4
  store ptr %pTVA, ptr %pTVA.addr, align 8
  store ptr %pTVB, ptr %pTVB.addr, align 8
  store ptr %pTVResult, ptr %pTVResult.addr, align 8
  %0 = load ptr, ptr %pTVA.addr, align 8
  call void @llvm.memcpy.p0.p0.i64(ptr align 8 %tva, ptr align 8 %0, i64 16, i1 false)
  %1 = load ptr, ptr %pTVB.addr, align 8
  call void @llvm.memcpy.p0.p0.i64(ptr align 8 %tvb, ptr align 8 %1, i64 16, i1 false)
  %tv_usec = getelementptr inbounds %struct.timeval, ptr %tva, i32 0, i32 1
  %2 = load i64, ptr %tv_usec, align 8
  %tv_usec1 = getelementptr inbounds %struct.timeval, ptr %tvb, i32 0, i32 1
  %3 = load i64, ptr %tv_usec1, align 8
  %cmp = icmp slt i64 %2, %3
  br i1 %cmp, label %if.then, label %if.end

if.then:                                          ; preds = %entry
  %tv_usec2 = getelementptr inbounds %struct.timeval, ptr %tvb, i32 0, i32 1
  %4 = load i64, ptr %tv_usec2, align 8
  %tv_usec3 = getelementptr inbounds %struct.timeval, ptr %tva, i32 0, i32 1
  %5 = load i64, ptr %tv_usec3, align 8
  %sub = sub nsw i64 %4, %5
  %div = sdiv i64 %sub, 1000000
  %add = add nsw i64 %div, 1
  %conv = trunc i64 %add to i32
  store i32 %conv, ptr %nsec, align 4
  %6 = load i32, ptr %nsec, align 4
  %mul = mul nsw i32 1000000, %6
  %conv4 = sext i32 %mul to i64
  %tv_usec5 = getelementptr inbounds %struct.timeval, ptr %tvb, i32 0, i32 1
  %7 = load i64, ptr %tv_usec5, align 8
  %sub6 = sub nsw i64 %7, %conv4
  store i64 %sub6, ptr %tv_usec5, align 8
  %8 = load i32, ptr %nsec, align 4
  %conv7 = sext i32 %8 to i64
  %tv_sec = getelementptr inbounds %struct.timeval, ptr %tvb, i32 0, i32 0
  %9 = load i64, ptr %tv_sec, align 8
  %add8 = add nsw i64 %9, %conv7
  store i64 %add8, ptr %tv_sec, align 8
  br label %if.end

if.end:                                           ; preds = %if.then, %entry
  %tv_usec9 = getelementptr inbounds %struct.timeval, ptr %tva, i32 0, i32 1
  %10 = load i64, ptr %tv_usec9, align 8
  %tv_usec10 = getelementptr inbounds %struct.timeval, ptr %tvb, i32 0, i32 1
  %11 = load i64, ptr %tv_usec10, align 8
  %sub11 = sub nsw i64 %10, %11
  %cmp12 = icmp sgt i64 %sub11, 1000000
  br i1 %cmp12, label %if.then13, label %if.end27

if.then13:                                        ; preds = %if.end
  %tv_usec15 = getelementptr inbounds %struct.timeval, ptr %tvb, i32 0, i32 1
  %12 = load i64, ptr %tv_usec15, align 8
  %tv_usec16 = getelementptr inbounds %struct.timeval, ptr %tva, i32 0, i32 1
  %13 = load i64, ptr %tv_usec16, align 8
  %sub17 = sub nsw i64 %12, %13
  %div18 = sdiv i64 %sub17, 1000000
  %conv19 = trunc i64 %div18 to i32
  store i32 %conv19, ptr %nsec14, align 4
  %14 = load i32, ptr %nsec14, align 4
  %mul20 = mul nsw i32 1000000, %14
  %conv21 = sext i32 %mul20 to i64
  %tv_usec22 = getelementptr inbounds %struct.timeval, ptr %tvb, i32 0, i32 1
  %15 = load i64, ptr %tv_usec22, align 8
  %add23 = add nsw i64 %15, %conv21
  store i64 %add23, ptr %tv_usec22, align 8
  %16 = load i32, ptr %nsec14, align 4
  %conv24 = sext i32 %16 to i64
  %tv_sec25 = getelementptr inbounds %struct.timeval, ptr %tvb, i32 0, i32 0
  %17 = load i64, ptr %tv_sec25, align 8
  %sub26 = sub nsw i64 %17, %conv24
  store i64 %sub26, ptr %tv_sec25, align 8
  br label %if.end27

if.end27:                                         ; preds = %if.then13, %if.end
  %tv_sec28 = getelementptr inbounds %struct.timeval, ptr %tva, i32 0, i32 0
  %18 = load i64, ptr %tv_sec28, align 8
  %tv_sec29 = getelementptr inbounds %struct.timeval, ptr %tvb, i32 0, i32 0
  %19 = load i64, ptr %tv_sec29, align 8
  %sub30 = sub nsw i64 %18, %19
  %20 = load ptr, ptr %pTVResult.addr, align 8
  %tv_sec31 = getelementptr inbounds %struct.timeval, ptr %20, i32 0, i32 0
  store i64 %sub30, ptr %tv_sec31, align 8
  %tv_usec32 = getelementptr inbounds %struct.timeval, ptr %tva, i32 0, i32 1
  %21 = load i64, ptr %tv_usec32, align 8
  %tv_usec33 = getelementptr inbounds %struct.timeval, ptr %tvb, i32 0, i32 1
  %22 = load i64, ptr %tv_usec33, align 8
  %sub34 = sub nsw i64 %21, %22
  %23 = load ptr, ptr %pTVResult.addr, align 8
  %tv_usec35 = getelementptr inbounds %struct.timeval, ptr %23, i32 0, i32 1
  store i64 %sub34, ptr %tv_usec35, align 8
  %tv_sec36 = getelementptr inbounds %struct.timeval, ptr %tva, i32 0, i32 0
  %24 = load i64, ptr %tv_sec36, align 8
  %tv_sec37 = getelementptr inbounds %struct.timeval, ptr %tvb, i32 0, i32 0
  %25 = load i64, ptr %tv_sec37, align 8
  %cmp38 = icmp eq i64 %24, %25
  br i1 %cmp38, label %if.then39, label %if.end48

if.then39:                                        ; preds = %if.end27
  %tv_usec40 = getelementptr inbounds %struct.timeval, ptr %tva, i32 0, i32 1
  %26 = load i64, ptr %tv_usec40, align 8
  %tv_usec41 = getelementptr inbounds %struct.timeval, ptr %tvb, i32 0, i32 1
  %27 = load i64, ptr %tv_usec41, align 8
  %cmp42 = icmp eq i64 %26, %27
  br i1 %cmp42, label %if.then43, label %if.end44

if.then43:                                        ; preds = %if.then39
  store i32 0, ptr %retval, align 4
  br label %return

if.end44:                                         ; preds = %if.then39
  %tv_usec45 = getelementptr inbounds %struct.timeval, ptr %tva, i32 0, i32 1
  %28 = load i64, ptr %tv_usec45, align 8
  %tv_usec46 = getelementptr inbounds %struct.timeval, ptr %tvb, i32 0, i32 1
  %29 = load i64, ptr %tv_usec46, align 8
  %cmp47 = icmp sgt i64 %28, %29
  %cond = select i1 %cmp47, i32 1, i32 -1
  store i32 %cond, ptr %retval, align 4
  br label %return

if.end48:                                         ; preds = %if.end27
  %tv_sec49 = getelementptr inbounds %struct.timeval, ptr %tva, i32 0, i32 0
  %30 = load i64, ptr %tv_sec49, align 8
  %tv_sec50 = getelementptr inbounds %struct.timeval, ptr %tvb, i32 0, i32 0
  %31 = load i64, ptr %tv_sec50, align 8
  %cmp51 = icmp sgt i64 %30, %31
  %cond52 = select i1 %cmp51, i32 1, i32 -1
  store i32 %cond52, ptr %retval, align 4
  br label %return

return:                                           ; preds = %if.end48, %if.end44, %if.then43
  %32 = load i32, ptr %retval, align 4
  ret i32 %32
}