; Function Attrs: mustprogress nofree norecurse nosync nounwind willreturn memory(argmem: readwrite) uwtable
define dso_local noundef range(i32 -1, 2) i32 @_ZN2EA4StdC17TimevalDifferenceEPK7timevalS3_PS1_(ptr noundef readonly captures(none) %pTVA, ptr noundef readonly captures(none) %pTVB, ptr noundef writeonly captures(none) initializes((0, 16)) %pTVResult) local_unnamed_addr #14 {
entry:
  %tva.sroa.0.0.copyload = load i64, ptr %pTVA, align 8
  %tva.sroa.4.0..sroa_idx = getelementptr inbounds nuw i8, ptr %pTVA, i64 8
  %tva.sroa.4.0.copyload = load i64, ptr %tva.sroa.4.0..sroa_idx, align 8
  %tvb.sroa.0.0.copyload = load i64, ptr %pTVB, align 8
  %tvb.sroa.8.0..sroa_idx = getelementptr inbounds nuw i8, ptr %pTVB, i64 8
  %tvb.sroa.8.0.copyload = load i64, ptr %tvb.sroa.8.0..sroa_idx, align 8
  %cmp = icmp slt i64 %tva.sroa.4.0.copyload, %tvb.sroa.8.0.copyload
  br i1 %cmp, label %if.then, label %if.end

if.then:                                          ; preds = %entry
  %sub = sub nsw i64 %tvb.sroa.8.0.copyload, %tva.sroa.4.0.copyload
  %div = sdiv i64 %sub, 1000000
  %0 = trunc i64 %div to i32
  %conv = add i32 %0, 1
  %mul = mul nsw i32 %conv, 1000000
  %conv4 = sext i32 %mul to i64
  %sub6 = sub nsw i64 %tvb.sroa.8.0.copyload, %conv4
  %conv7 = sext i32 %conv to i64
  %add8 = add nsw i64 %tvb.sroa.0.0.copyload, %conv7
  br label %if.end

if.end:                                           ; preds = %if.then, %entry
  %tvb.sroa.0.0 = phi i64 [ %add8, %if.then ], [ %tvb.sroa.0.0.copyload, %entry ]
  %tvb.sroa.8.0 = phi i64 [ %sub6, %if.then ], [ %tvb.sroa.8.0.copyload, %entry ]
  %sub11 = sub nsw i64 %tva.sroa.4.0.copyload, %tvb.sroa.8.0
  %cmp12 = icmp sgt i64 %sub11, 1000000
  br i1 %cmp12, label %if.then13, label %if.end27

if.then13:                                        ; preds = %if.end
  %sub17 = sub nsw i64 %tvb.sroa.8.0, %tva.sroa.4.0.copyload
  %div18 = sdiv i64 %sub17, 1000000
  %sext = mul i64 %div18, 4294967296000000
  %conv21 = ashr exact i64 %sext, 32
  %add23 = add nsw i64 %conv21, %tvb.sroa.8.0
  %sext24 = shl i64 %div18, 32
  %conv24 = ashr exact i64 %sext24, 32
  %sub26 = sub nsw i64 %tvb.sroa.0.0, %conv24
  %.pre = sub nsw i64 %tva.sroa.4.0.copyload, %add23
  br label %if.end27

if.end27:                                         ; preds = %if.then13, %if.end
  %sub34.pre-phi = phi i64 [ %.pre, %if.then13 ], [ %sub11, %if.end ]
  %tvb.sroa.0.1 = phi i64 [ %sub26, %if.then13 ], [ %tvb.sroa.0.0, %if.end ]
  %tvb.sroa.8.1 = phi i64 [ %add23, %if.then13 ], [ %tvb.sroa.8.0, %if.end ]
  %sub30 = sub nsw i64 %tva.sroa.0.0.copyload, %tvb.sroa.0.1
  store i64 %sub30, ptr %pTVResult, align 8
  %tv_usec35 = getelementptr inbounds nuw i8, ptr %pTVResult, i64 8
  store i64 %sub34.pre-phi, ptr %tv_usec35, align 8
  %cmp38 = icmp eq i64 %tva.sroa.0.0.copyload, %tvb.sroa.0.1
  br i1 %cmp38, label %if.then39, label %if.end48

if.then39:                                        ; preds = %if.end27
  %cmp42 = icmp eq i64 %tva.sroa.4.0.copyload, %tvb.sroa.8.1
  br i1 %cmp42, label %return, label %if.end44

if.end44:                                         ; preds = %if.then39
  %cmp47 = icmp sgt i64 %tva.sroa.4.0.copyload, %tvb.sroa.8.1
  %cond = select i1 %cmp47, i32 1, i32 -1
  br label %return

if.end48:                                         ; preds = %if.end27
  %cmp51 = icmp sgt i64 %tva.sroa.0.0.copyload, %tvb.sroa.0.1
  %cond52 = select i1 %cmp51, i32 1, i32 -1
  br label %return

return:                                           ; preds = %if.then39, %if.end48, %if.end44
  %retval.0 = phi i32 [ %cond, %if.end44 ], [ %cond52, %if.end48 ], [ 0, %if.then39 ]
  ret i32 %retval.0
}